	.attribute	4, 16
	.attribute	5, "rv32i2p1"
	.file	"fact.cpp"
	.text
	.globl	_Z4facti                        # -- Begin function _Z4facti
	.p2align	2
	.type	_Z4facti,@function
_Z4facti:                               # @_Z4facti
	.cfi_startproc
# %bb.0:
	addi	sp, sp, -32
	.cfi_def_cfa_offset 32
	sw	ra, 28(sp)                      # 4-byte Folded Spill
	sw	s0, 24(sp)                      # 4-byte Folded Spill
	.cfi_offset ra, -4
	.cfi_offset s0, -8
	addi	s0, sp, 32
	.cfi_def_cfa s0, 0
	sw	a0, -16(s0)
	lw	a0, -16(s0)
	li	a1, 1
	bne	a0, a1, .LBB0_2
	j	.LBB0_1
.LBB0_1:
	lw	a0, -16(s0)
	sw	a0, -12(s0)
	j	.LBB0_3
.LBB0_2:
	lw	a0, -16(s0)
	sw	a0, -20(s0)                     # 4-byte Folded Spill
	addi	a0, a0, -1
	call	_Z4facti
	mv	a1, a0
	lw	a0, -20(s0)                     # 4-byte Folded Reload
	call	__mulsi3
	sw	a0, -12(s0)
	j	.LBB0_3
.LBB0_3:
	lw	a0, -12(s0)
	.cfi_def_cfa sp, 32
	lw	ra, 28(sp)                      # 4-byte Folded Reload
	lw	s0, 24(sp)                      # 4-byte Folded Reload
	.cfi_restore ra
	.cfi_restore s0
	addi	sp, sp, 32
	.cfi_def_cfa_offset 0
	ret
.Lfunc_end0:
	.size	_Z4facti, .Lfunc_end0-_Z4facti
	.cfi_endproc
                                        # -- End function
	.globl	main                            # -- Begin function main
	.p2align	2
	.type	main,@function
main:                                   # @main
	.cfi_startproc
# %bb.0:
	addi	sp, sp, -16
	.cfi_def_cfa_offset 16
	sw	ra, 12(sp)                      # 4-byte Folded Spill
	sw	s0, 8(sp)                       # 4-byte Folded Spill
	.cfi_offset ra, -4
	.cfi_offset s0, -8
	addi	s0, sp, 16
	.cfi_def_cfa s0, 0
	li	a0, 10
	call	_Z4facti
	li	a0, 0
	.cfi_def_cfa sp, 16
	lw	ra, 12(sp)                      # 4-byte Folded Reload
	lw	s0, 8(sp)                       # 4-byte Folded Reload
	.cfi_restore ra
	.cfi_restore s0
	addi	sp, sp, 16
	.cfi_def_cfa_offset 0
	ret
.Lfunc_end1:
	.size	main, .Lfunc_end1-main
	.cfi_endproc
                                        # -- End function
	.ident	"Homebrew clang version 20.1.2"
	.section	".note.GNU-stack","",@progbits
	.addrsig
	.addrsig_sym _Z4facti
